target datalayout = "e-m:e-p270:32:32-p271:32:32-p272:64:64-i64:64-i128:128-f80:128-n8:16:32:64-S128"
target triple = "x86_64-pc-linux-gnu"

%struct.expert_field = type { i32, i32 }

@hf_ndps_user_name = internal global i32 0, align 4
@hf_ndps_pa_name = internal global i32 0, align 4
@hf_ndps_tree = internal global i32 0, align 4
@hf_ndps_cred_type = internal global i32 0, align 4
@hf_ndps_server_name = internal global i32 0, align 4
@hf_ndps_connection = internal global i32 0, align 4
@hf_ndps_item_count = internal global i32 0, align 4
@hf_ndps_num_passwords = internal global i32 0, align 4
@hf_ndps_password = internal global i32 0, align 4
@hf_ndps_certified = internal global i32 0, align 4
@ett_ndps = internal global i32 0, align 4
@ei_ndps_truncated = internal global %struct.expert_field zeroinitializer, align 4
@.str.3568 = private unnamed_addr constant [12 x i8] c"Password %d\00", align 1

; Function Attrs: nounwind uwtable
define internal i32 @credentials(ptr noundef %0, ptr noundef %1, ptr noundef %2, i32 noundef %3) #0 {
  %5 = alloca ptr, align 8
  %6 = alloca ptr, align 8
  %7 = alloca ptr, align 8
  %8 = alloca i32, align 4
  %9 = alloca i32, align 4
  %10 = alloca i32, align 4
  %11 = alloca i32, align 4
  %12 = alloca i32, align 4
  %13 = alloca ptr, align 8
  %14 = alloca ptr, align 8
  %15 = alloca ptr, align 8
  store ptr %0, ptr %5, align 8
  store ptr %1, ptr %6, align 8
  store ptr %2, ptr %7, align 8
  store i32 %3, ptr %8, align 4
  store i32 0, ptr %9, align 4
  store i32 0, ptr %10, align 4
  %16 = load ptr, ptr %5, align 8
  %17 = load i32, ptr %8, align 4
  %18 = call i32 @tvb_get_ntohl(ptr noundef %16, i32 noundef %17)
  store i32 %18, ptr %9, align 4
  %19 = load ptr, ptr %7, align 8
  %20 = load i32, ptr @hf_ndps_cred_type, align 4
  %21 = load ptr, ptr %5, align 8
  %22 = load i32, ptr %8, align 4
  %23 = call ptr @proto_tree_add_item(ptr noundef %19, i32 noundef %20, ptr noundef %21, i32 noundef %22, i32 noundef 4, i32 noundef 0)
  %24 = load i32, ptr %8, align 4
  %25 = add i32 %24, 4
  store i32 %25, ptr %8, align 4
  %26 = load i32, ptr %9, align 4
  switch i32 %26, label %206 [
    i32 0, label %27
    i32 1, label %88
    i32 2, label %107
    i32 3, label %122
    i32 4, label %167
  ]

27:                                               ; preds = %4
  %28 = load ptr, ptr %5, align 8
  %29 = load i32, ptr @hf_ndps_user_name, align 4
  %30 = load ptr, ptr %7, align 8
  %31 = load i32, ptr %8, align 4
  %32 = call i32 @ndps_string(ptr noundef %28, i32 noundef %29, ptr noundef %30, i32 noundef %31, ptr noundef null)
  store i32 %32, ptr %8, align 4
  %33 = load ptr, ptr %5, align 8
  %34 = load i32, ptr %8, align 4
  %35 = call i32 @tvb_get_ntohl(ptr noundef %33, i32 noundef %34)
  store i32 %35, ptr %11, align 4
  %36 = load ptr, ptr %7, align 8
  %37 = load i32, ptr @hf_ndps_num_passwords, align 4
  %38 = load ptr, ptr %5, align 8
  %39 = load i32, ptr %8, align 4
  %40 = load i32, ptr %11, align 4
  %41 = call ptr @proto_tree_add_uint(ptr noundef %36, i32 noundef %37, ptr noundef %38, i32 noundef %39, i32 noundef 4, i32 noundef %40)
  store ptr %41, ptr %15, align 8
  %42 = load i32, ptr %8, align 4
  %43 = add i32 %42, 4
  store i32 %43, ptr %8, align 4
  store i32 0, ptr %12, align 4
  br label %44

44:                                               ; preds = %84, %27
  %45 = load i32, ptr %12, align 4
  %46 = load i32, ptr %11, align 4
  %47 = icmp ult i32 %45, %46
  br i1 %47, label %48, label %87

48:                                               ; preds = %44
  %49 = load i32, ptr %12, align 4
  %50 = icmp uge i32 %49, 100
  br i1 %50, label %51, label %55

51:                                               ; preds = %48
  %52 = load ptr, ptr %6, align 8
  %53 = load ptr, ptr %15, align 8
  %54 = call ptr @expert_add_info(ptr noundef %52, ptr noundef %53, ptr noundef @ei_ndps_truncated)
  br label %87

55:                                               ; preds = %48
  %56 = load ptr, ptr %7, align 8
  %57 = load ptr, ptr %5, align 8
  %58 = load i32, ptr %8, align 4
  %59 = load i32, ptr @ett_ndps, align 4
  %60 = load i32, ptr %12, align 4
  %61 = add i32 %60, 1
  %62 = call ptr (ptr, ptr, i32, i32, i32, ptr, ptr, ...) @proto_tree_add_subtree_format(ptr noundef %56, ptr noundef %57, i32 noundef %58, i32 noundef -1, i32 noundef %59, ptr noundef %14, ptr noundef @.str.3568, i32 noundef %61)
  store ptr %62, ptr %13, align 8
  %63 = load ptr, ptr %5, align 8
  %64 = load i32, ptr %8, align 4
  %65 = call i32 @tvb_get_ntohl(ptr noundef %63, i32 noundef %64)
  store i32 %65, ptr %10, align 4
  %66 = load i32, ptr %8, align 4
  %67 = add i32 %66, 4
  store i32 %67, ptr %8, align 4
  %68 = load i32, ptr %10, align 4
  %69 = icmp ne i32 %68, 0
  br i1 %69, label %70, label %77

70:                                               ; preds = %55
  %71 = load ptr, ptr %13, align 8
  %72 = load i32, ptr @hf_ndps_password, align 4
  %73 = load ptr, ptr %5, align 8
  %74 = load i32, ptr %8, align 4
  %75 = load i32, ptr %10, align 4
  %76 = call ptr @proto_tree_add_item(ptr noundef %71, i32 noundef %72, ptr noundef %73, i32 noundef %74, i32 noundef %75, i32 noundef 0)
  br label %77

77:                                               ; preds = %70, %55
  %78 = load ptr, ptr %14, align 8
  %79 = load ptr, ptr %5, align 8
  %80 = load i32, ptr %8, align 4
  call void @proto_item_set_end(ptr noundef %78, ptr noundef %79, i32 noundef %80)
  %81 = load i32, ptr %10, align 4
  %82 = load i32, ptr %8, align 4
  %83 = add i32 %82, %81
  store i32 %83, ptr %8, align 4
  br label %84

84:                                               ; preds = %77
  %85 = load i32, ptr %12, align 4
  %86 = add i32 %85, 1
  store i32 %86, ptr %12, align 4
  br label %44, !llvm.loop !111

87:                                               ; preds = %51, %44
  br label %207

88:                                               ; preds = %4
  %89 = load ptr, ptr %5, align 8
  %90 = load i32, ptr %8, align 4
  %91 = call i32 @tvb_get_ntohl(ptr noundef %89, i32 noundef %90)
  store i32 %91, ptr %10, align 4
  %92 = load i32, ptr %8, align 4
  %93 = add i32 %92, 4
  store i32 %93, ptr %8, align 4
  %94 = load i32, ptr %10, align 4
  %95 = icmp ne i32 %94, 0
  br i1 %95, label %96, label %103

96:                                               ; preds = %88
  %97 = load ptr, ptr %7, align 8
  %98 = load i32, ptr @hf_ndps_certified, align 4
  %99 = load ptr, ptr %5, align 8
  %100 = load i32, ptr %8, align 4
  %101 = load i32, ptr %10, align 4
  %102 = call ptr @proto_tree_add_item(ptr noundef %97, i32 noundef %98, ptr noundef %99, i32 noundef %100, i32 noundef %101, i32 noundef 0)
  br label %103

103:                                              ; preds = %96, %88
  %104 = load i32, ptr %10, align 4
  %105 = load i32, ptr %8, align 4
  %106 = add i32 %105, %104
  store i32 %106, ptr %8, align 4
  br label %207

107:                                              ; preds = %4
  %108 = load ptr, ptr %5, align 8
  %109 = load i32, ptr @hf_ndps_server_name, align 4
  %110 = load ptr, ptr %7, align 8
  %111 = load i32, ptr %8, align 4
  %112 = call i32 @ndps_string(ptr noundef %108, i32 noundef %109, ptr noundef %110, i32 noundef %111, ptr noundef null)
  store i32 %112, ptr %8, align 4
  %113 = load i32, ptr %8, align 4
  %114 = add i32 %113, 2
  store i32 %114, ptr %8, align 4
  %115 = load ptr, ptr %7, align 8
  %116 = load i32, ptr @hf_ndps_connection, align 4
  %117 = load ptr, ptr %5, align 8
  %118 = load i32, ptr %8, align 4
  %119 = call ptr @proto_tree_add_item(ptr noundef %115, i32 noundef %116, ptr noundef %117, i32 noundef %118, i32 noundef 2, i32 noundef 0)
  %120 = load i32, ptr %8, align 4
  %121 = add i32 %120, 2
  store i32 %121, ptr %8, align 4
  br label %207

122:                                              ; preds = %4
  %123 = load ptr, ptr %5, align 8
  %124 = load i32, ptr %8, align 4
  %125 = call i32 @tvb_get_ntohl(ptr noundef %123, i32 noundef %124)
  store i32 %125, ptr %10, align 4
  %126 = load ptr, ptr %5, align 8
  %127 = load i32, ptr @hf_ndps_server_name, align 4
  %128 = load ptr, ptr %7, align 8
  %129 = load i32, ptr %8, align 4
  %130 = call i32 @ndps_string(ptr noundef %126, i32 noundef %127, ptr noundef %128, i32 noundef %129, ptr noundef null)
  store i32 %130, ptr %8, align 4
  %131 = load i32, ptr %10, align 4
  %132 = icmp eq i32 %131, 0
  br i1 %132, label %133, label %136

133:                                              ; preds = %122
  %134 = load i32, ptr %8, align 4
  %135 = add i32 %134, 2
  store i32 %135, ptr %8, align 4
  br label %136

136:                                              ; preds = %133, %122
  %137 = load ptr, ptr %5, align 8
  %138 = load i32, ptr %8, align 4
  %139 = call zeroext i16 @tvb_get_ntohs(ptr noundef %137, i32 noundef %138)
  %140 = zext i16 %139 to i32
  %141 = icmp eq i32 %140, 0
  br i1 %141, label %142, label %154

142:                                              ; preds = %136
  %143 = load i32, ptr %8, align 4
  %144 = add i32 %143, 2
  store i32 %144, ptr %8, align 4
  %145 = load ptr, ptr %5, align 8
  %146 = load i32, ptr %8, align 4
  %147 = call zeroext i16 @tvb_get_ntohs(ptr noundef %145, i32 noundef %146)
  %148 = zext i16 %147 to i32
  %149 = icmp eq i32 %148, 0
  br i1 %149, label %150, label %153

150:                                              ; preds = %142
  %151 = load i32, ptr %8, align 4
  %152 = add i32 %151, 2
  store i32 %152, ptr %8, align 4
  br label %153

153:                                              ; preds = %150, %142
  br label %154

154:                                              ; preds = %153, %136
  %155 = load ptr, ptr %7, align 8
  %156 = load i32, ptr @hf_ndps_connection, align 4
  %157 = load ptr, ptr %5, align 8
  %158 = load i32, ptr %8, align 4
  %159 = call ptr @proto_tree_add_item(ptr noundef %155, i32 noundef %156, ptr noundef %157, i32 noundef %158, i32 noundef 2, i32 noundef 0)
  %160 = load i32, ptr %8, align 4
  %161 = add i32 %160, 2
  store i32 %161, ptr %8, align 4
  %162 = load ptr, ptr %5, align 8
  %163 = load i32, ptr @hf_ndps_user_name, align 4
  %164 = load ptr, ptr %7, align 8
  %165 = load i32, ptr %8, align 4
  %166 = call i32 @ndps_string(ptr noundef %162, i32 noundef %163, ptr noundef %164, i32 noundef %165, ptr noundef null)
  store i32 %166, ptr %8, align 4
  br label %207

167:                                              ; preds = %4
  %168 = load ptr, ptr %5, align 8
  %169 = load i32, ptr @hf_ndps_server_name, align 4
  %170 = load ptr, ptr %7, align 8
  %171 = load i32, ptr %8, align 4
  %172 = call i32 @ndps_string(ptr noundef %168, i32 noundef %169, ptr noundef %170, i32 noundef %171, ptr noundef null)
  store i32 %172, ptr %8, align 4
  %173 = load i32, ptr %8, align 4
  %174 = add i32 %173, 2
  store i32 %174, ptr %8, align 4
  %175 = load ptr, ptr %7, align 8
  %176 = load i32, ptr @hf_ndps_connection, align 4
  %177 = load ptr, ptr %5, align 8
  %178 = load i32, ptr %8, align 4
  %179 = call ptr @proto_tree_add_item(ptr noundef %175, i32 noundef %176, ptr noundef %177, i32 noundef %178, i32 noundef 2, i32 noundef 0)
  %180 = load i32, ptr %8, align 4
  %181 = add i32 %180, 2
  store i32 %181, ptr %8, align 4
  %182 = load ptr, ptr %5, align 8
  %183 = load i32, ptr @hf_ndps_user_name, align 4
  %184 = load ptr, ptr %7, align 8
  %185 = load i32, ptr %8, align 4
  %186 = call i32 @ndps_string(ptr noundef %182, i32 noundef %183, ptr noundef %184, i32 noundef %185, ptr noundef null)
  store i32 %186, ptr %8, align 4
  %187 = load i32, ptr %8, align 4
  %188 = add i32 %187, 8
  store i32 %188, ptr %8, align 4
  %189 = load ptr, ptr %7, align 8
  %190 = load i32, ptr @hf_ndps_item_count, align 4
  %191 = load ptr, ptr %5, align 8
  %192 = load i32, ptr %8, align 4
  %193 = call ptr @proto_tree_add_item(ptr noundef %189, i32 noundef %190, ptr noundef %191, i32 noundef %192, i32 noundef 4, i32 noundef 0)
  %194 = load i32, ptr %8, align 4
  %195 = add i32 %194, 4
  store i32 %195, ptr %8, align 4
  %196 = load ptr, ptr %5, align 8
  %197 = load i32, ptr @hf_ndps_pa_name, align 4
  %198 = load ptr, ptr %7, align 8
  %199 = load i32, ptr %8, align 4
  %200 = call i32 @ndps_string(ptr noundef %196, i32 noundef %197, ptr noundef %198, i32 noundef %199, ptr noundef null)
  store i32 %200, ptr %8, align 4
  %201 = load ptr, ptr %5, align 8
  %202 = load i32, ptr @hf_ndps_tree, align 4
  %203 = load ptr, ptr %7, align 8
  %204 = load i32, ptr %8, align 4
  %205 = call i32 @ndps_string(ptr noundef %201, i32 noundef %202, ptr noundef %203, i32 noundef %204, ptr noundef null)
  store i32 %205, ptr %8, align 4
  br label %207

206:                                              ; preds = %4
  br label %207

207:                                              ; preds = %206, %167, %154, %107, %103, %87
  %208 = load i32, ptr %8, align 4
  ret i32 %208
}