; Function Attrs: nounwind uwtable
define internal fastcc i32 @credentials(ptr noundef %0, ptr noundef %1, ptr noundef %2) unnamed_addr #0 {
  %4 = alloca ptr, align 8
  %5 = tail call i32 @tvb_get_ntohl(ptr noundef %0, i32 noundef 44) #6
  %6 = load i32, ptr @hf_ndps_cred_type, align 4
  %7 = tail call ptr @proto_tree_add_item(ptr noundef %2, i32 noundef %6, ptr noundef %0, i32 noundef 44, i32 noundef 4, i32 noundef 0) #6
  switch i32 %5, label %.loopexit [
    i32 0, label %8
    i32 1, label %29
    i32 2, label %36
    i32 3, label %43
    i32 4, label %62
  ]

8:                                                ; preds = %3
  %9 = load i32, ptr @hf_ndps_user_name, align 4
  %10 = tail call fastcc i32 @ndps_string(ptr noundef %0, i32 noundef %9, ptr noundef %2, i32 noundef 48, ptr noundef null)
  %11 = tail call i32 @tvb_get_ntohl(ptr noundef %0, i32 noundef %10) #6
  %12 = load i32, ptr @hf_ndps_num_passwords, align 4
  %13 = tail call ptr @proto_tree_add_uint(ptr noundef %2, i32 noundef %12, ptr noundef %0, i32 noundef %10, i32 noundef 4, i32 noundef %11) #6
  %14 = add i32 %10, 4
  %.not107 = icmp eq i32 %11, 0
  br i1 %.not107, label %.loopexit, label %.lr.ph

.lr.ph:                                           ; preds = %8, %26
  %.0106 = phi i32 [ %28, %26 ], [ %14, %8 ]
  %.099105 = phi i32 [ %19, %26 ], [ 0, %8 ]
  %exitcond = icmp eq i32 %.099105, 100
  br i1 %exitcond, label %15, label %17

15:                                               ; preds = %.lr.ph
  %16 = call ptr @expert_add_info(ptr noundef %1, ptr noundef %13, ptr noundef nonnull @ei_ndps_truncated) #6
  br label %.loopexit

17:                                               ; preds = %.lr.ph
  %18 = load i32, ptr @ett_ndps, align 4
  %19 = add nuw nsw i32 %.099105, 1
  %20 = call ptr (ptr, ptr, i32, i32, i32, ptr, ptr, ...) @proto_tree_add_subtree_format(ptr noundef %2, ptr noundef %0, i32 noundef %.0106, i32 noundef -1, i32 noundef %18, ptr noundef nonnull %4, ptr noundef nonnull @.str.3568, i32 noundef %19) #6
  %21 = call i32 @tvb_get_ntohl(ptr noundef %0, i32 noundef %.0106) #6
  %22 = add i32 %.0106, 4
  %.not102 = icmp eq i32 %21, 0
  br i1 %.not102, label %26, label %23

23:                                               ; preds = %17
  %24 = load i32, ptr @hf_ndps_password, align 4
  %25 = call ptr @proto_tree_add_item(ptr noundef %20, i32 noundef %24, ptr noundef %0, i32 noundef %22, i32 noundef %21, i32 noundef 0) #6
  br label %26

26:                                               ; preds = %23, %17
  %27 = load ptr, ptr %4, align 8
  call void @proto_item_set_end(ptr noundef %27, ptr noundef %0, i32 noundef %22) #6
  %28 = add i32 %21, %22
  %exitcond109.not = icmp eq i32 %19, %11
  br i1 %exitcond109.not, label %.loopexit, label %.lr.ph, !llvm.loop !111

29:                                               ; preds = %3
  %30 = tail call i32 @tvb_get_ntohl(ptr noundef %0, i32 noundef 48) #6
  %.not = icmp eq i32 %30, 0
  br i1 %.not, label %34, label %31

31:                                               ; preds = %29
  %32 = load i32, ptr @hf_ndps_certified, align 4
  %33 = tail call ptr @proto_tree_add_item(ptr noundef %2, i32 noundef %32, ptr noundef %0, i32 noundef 52, i32 noundef %30, i32 noundef 0) #6
  br label %34

34:                                               ; preds = %31, %29
  %35 = add i32 %30, 52
  br label %.loopexit

36:                                               ; preds = %3
  %37 = load i32, ptr @hf_ndps_server_name, align 4
  %38 = tail call fastcc i32 @ndps_string(ptr noundef %0, i32 noundef %37, ptr noundef %2, i32 noundef 48, ptr noundef null)
  %39 = add i32 %38, 2
  %40 = load i32, ptr @hf_ndps_connection, align 4
  %41 = tail call ptr @proto_tree_add_item(ptr noundef %2, i32 noundef %40, ptr noundef %0, i32 noundef %39, i32 noundef 2, i32 noundef 0) #6
  %42 = add i32 %38, 4
  br label %.loopexit

43:                                               ; preds = %3
  %44 = tail call i32 @tvb_get_ntohl(ptr noundef %0, i32 noundef 48) #6
  %45 = load i32, ptr @hf_ndps_server_name, align 4
  %46 = tail call fastcc i32 @ndps_string(ptr noundef %0, i32 noundef %45, ptr noundef %2, i32 noundef 48, ptr noundef null)
  %47 = icmp eq i32 %44, 0
  %48 = add i32 %46, 2
  %spec.select = select i1 %47, i32 %48, i32 %46
  %49 = tail call zeroext i16 @tvb_get_ntohs(ptr noundef %0, i32 noundef %spec.select) #6
  %50 = icmp eq i16 %49, 0
  br i1 %50, label %51, label %56

51:                                               ; preds = %43
  %52 = add i32 %spec.select, 2
  %53 = tail call zeroext i16 @tvb_get_ntohs(ptr noundef %0, i32 noundef %52) #6
  %54 = icmp eq i16 %53, 0
  %55 = add i32 %spec.select, 4
  %spec.select103 = select i1 %54, i32 %55, i32 %52
  br label %56

56:                                               ; preds = %51, %43
  %.3 = phi i32 [ %spec.select, %43 ], [ %spec.select103, %51 ]
  %57 = load i32, ptr @hf_ndps_connection, align 4
  %58 = tail call ptr @proto_tree_add_item(ptr noundef %2, i32 noundef %57, ptr noundef %0, i32 noundef %.3, i32 noundef 2, i32 noundef 0) #6
  %59 = add i32 %.3, 2
  %60 = load i32, ptr @hf_ndps_user_name, align 4
  %61 = tail call fastcc i32 @ndps_string(ptr noundef %0, i32 noundef %60, ptr noundef %2, i32 noundef %59, ptr noundef null)
  br label %.loopexit

62:                                               ; preds = %3
  %63 = load i32, ptr @hf_ndps_server_name, align 4
  %64 = tail call fastcc i32 @ndps_string(ptr noundef %0, i32 noundef %63, ptr noundef %2, i32 noundef 48, ptr noundef null)
  %65 = add i32 %64, 2
  %66 = load i32, ptr @hf_ndps_connection, align 4
  %67 = tail call ptr @proto_tree_add_item(ptr noundef %2, i32 noundef %66, ptr noundef %0, i32 noundef %65, i32 noundef 2, i32 noundef 0) #6
  %68 = add i32 %64, 4
  %69 = load i32, ptr @hf_ndps_user_name, align 4
  %70 = tail call fastcc i32 @ndps_string(ptr noundef %0, i32 noundef %69, ptr noundef %2, i32 noundef %68, ptr noundef null)
  %71 = add i32 %70, 8
  %72 = load i32, ptr @hf_ndps_item_count, align 4
  %73 = tail call ptr @proto_tree_add_item(ptr noundef %2, i32 noundef %72, ptr noundef %0, i32 noundef %71, i32 noundef 4, i32 noundef 0) #6
  %74 = add i32 %70, 12
  %75 = load i32, ptr @hf_ndps_pa_name, align 4
  %76 = tail call fastcc i32 @ndps_string(ptr noundef %0, i32 noundef %75, ptr noundef %2, i32 noundef %74, ptr noundef null)
  %77 = load i32, ptr @hf_ndps_tree, align 4
  %78 = tail call fastcc i32 @ndps_string(ptr noundef %0, i32 noundef %77, ptr noundef %2, i32 noundef %76, ptr noundef null)
  br label %.loopexit

.loopexit:                                        ; preds = %26, %8, %3, %15, %62, %56, %36, %34
  %.1 = phi i32 [ 48, %3 ], [ %78, %62 ], [ %61, %56 ], [ %42, %36 ], [ %35, %34 ], [ %.0106, %15 ], [ %14, %8 ], [ %28, %26 ]
  ret i32 %.1
}